; Function Attrs: mustprogress uwtable
define void @_Z21mt19937_seed_to_stateB5cxx11j(ptr noalias sret(%"class.std::__cxx11::basic_string") align 8 %agg.result, i32 noundef %seed) local_unnamed_addr #3 {
entry:
  %rng = alloca %"class.std::mersenne_twister_engine", align 8
  %conv = zext i32 %seed to i64
  store i64 %conv, ptr %rng, align 8
  br label %for.body.i.i

for.body.i.i:                                     ; preds = %for.body.i.i, %entry
  %0 = phi i64 [ %conv, %entry ], [ %rem.i.i10.i.i, %for.body.i.i ]
  %__i.011.i.i = phi i64 [ 1, %entry ], [ %inc.i.i, %for.body.i.i ]
  %shr.i.i = lshr i64 %0, 30
  %xor.i.i = xor i64 %shr.i.i, %0
  %mul.i.i = mul nuw nsw i64 %xor.i.i, 1812433253
  %add.i.i = add nuw i64 %mul.i.i, %__i.011.i.i
  %rem.i.i10.i.i = and i64 %add.i.i, 4294967295
  %arrayidx7.i.i = getelementptr inbounds nuw [624 x i64], ptr %rng, i64 0, i64 %__i.011.i.i
  store i64 %rem.i.i10.i.i, ptr %arrayidx7.i.i, align 8
  %inc.i.i = add nuw nsw i64 %__i.011.i.i, 1
  %exitcond.not.i.i = icmp eq i64 %inc.i.i, 624
  br i1 %exitcond.not.i.i, label %_ZNSt23mersenne_twister_engineImLm32ELm624ELm397ELm31ELm2567483615ELm11ELm4294967295ELm7ELm2636928640ELm15ELm4022730752ELm18ELm1812433253EEC2Em.exit, label %for.body.i.i, !llvm.loop !4

_ZNSt23mersenne_twister_engineImLm32ELm624ELm397ELm31ELm2567483615ELm11ELm4294967295ELm7ELm2636928640ELm15ELm4022730752ELm18ELm1812433253EEC2Em.exit: ; preds = %for.body.i.i
  %_M_p.i.i = getelementptr inbounds nuw i8, ptr %rng, i64 4992
  store i64 624, ptr %_M_p.i.i, align 8
  call void @_Z17mt19937_get_stateB5cxx11RKSt23mersenne_twister_engineImLm32ELm624ELm397ELm31ELm2567483615ELm11ELm4294967295ELm7ELm2636928640ELm15ELm4022730752ELm18ELm1812433253EE(ptr sret(%"class.std::__cxx11::basic_string") align 8 %agg.result, ptr noundef nonnull align 8 dereferenceable(5000) %rng)
  ret void
}